target datalayout = "e-m:e-p270:32:32-p271:32:32-p272:64:64-i64:64-i128:128-f80:128-n8:16:32:64-S128"
target triple = "x86_64-pc-linux-gnu"

%struct.darktable_t = type { %struct.dt_codepath_t, i32, i32, ptr, ptr, ptr, ptr, ptr, ptr, ptr, ptr, ptr, ptr, ptr, ptr, ptr, ptr, ptr, ptr, ptr, ptr, ptr, ptr, ptr, ptr, ptr, ptr, ptr, ptr, ptr, [64 x %struct.dt_pthread_mutex_t], %struct.dt_pthread_mutex_t, %struct.dt_pthread_mutex_t, %struct.dt_pthread_mutex_t, %struct.dt_pthread_mutex_t, %struct.dt_pthread_mutex_t, ptr, ptr, ptr, ptr, ptr, ptr, ptr, ptr, ptr, ptr, ptr, ptr, ptr, %struct.dt_lua_state_t, ptr, double, ptr, i32, [47 x i32], i32, i32, ptr, ptr, %struct.dt_sys_resources_t, %struct.dt_backthumb_t, %struct.dt_gimp_t }
%struct.dt_codepath_t = type { i8, [3 x i8] }
%struct.dt_pthread_mutex_t = type { %union.pthread_mutex_t }
%union.pthread_mutex_t = type { %struct.__pthread_mutex_s }
%struct.__pthread_mutex_s = type { i32, i32, i32, i32, i32, i16, i16, %struct.__pthread_internal_list }
%struct.__pthread_internal_list = type { ptr, ptr }
%struct.dt_lua_state_t = type { i32 }
%struct.dt_sys_resources_t = type { i64, i64, ptr, ptr, i32 }
%struct.dt_backthumb_t = type { double, double, i32, i32, i32, i32 }
%struct.dt_gimp_t = type { i32, ptr, ptr, i32, i32 }
%struct._GList = type { ptr, ptr, ptr }
%struct.dt_undo_tags_t = type { i32, ptr, ptr }

@darktable = external global %struct.darktable_t, align 8
@.str.1 = private unnamed_addr constant [115 x i8] c"generated/home/dtcxzyw/WorkSpace/Projects/compilers/llvm-opt-benchmark/bench/darktable/darktable/src/common/tags.c\00", align 1
@.str.8 = private unnamed_addr constant [40 x i8] c"[signal] raise %s; %s:%d, function %s()\00", align 1
@.str.9 = private unnamed_addr constant [22 x i8] c"DT_SIGNAL_TAG_CHANGED\00", align 1
@__FUNCTION__._pop_undo = private unnamed_addr constant [10 x i8] c"_pop_undo\00", align 1

; Function Attrs: nounwind uwtable
define internal void @_pop_undo(ptr noundef %0, i32 noundef %1, ptr noundef %2, i32 noundef %3, ptr noundef %4) #0 {
  %6 = alloca ptr, align 8
  %7 = alloca i32, align 4
  %8 = alloca ptr, align 8
  %9 = alloca i32, align 4
  %10 = alloca ptr, align 8
  %11 = alloca ptr, align 8
  %12 = alloca ptr, align 8
  %13 = alloca ptr, align 8
  %14 = alloca ptr, align 8
  store ptr %0, ptr %6, align 8, !tbaa !74
  store i32 %1, ptr %7, align 4, !tbaa !52
  store ptr %2, ptr %8, align 8, !tbaa !74
  store i32 %3, ptr %9, align 4, !tbaa !52
  store ptr %4, ptr %10, align 8, !tbaa !66
  %15 = load i32, ptr %7, align 4, !tbaa !52
  %16 = icmp eq i32 %15, 32
  br i1 %16, label %17, label %99

17:                                               ; preds = %5
  call void @llvm.lifetime.start.p0(i64 8, ptr %11) #8
  %18 = load ptr, ptr %8, align 8, !tbaa !74
  store ptr %18, ptr %11, align 8, !tbaa !59
  br label %19

19:                                               ; preds = %73, %17
  %20 = load ptr, ptr %11, align 8, !tbaa !59
  %21 = icmp ne ptr %20, null
  br i1 %21, label %23, label %22

22:                                               ; preds = %19
  call void @llvm.lifetime.end.p0(i64 8, ptr %11) #8
  br label %75

23:                                               ; preds = %19
  call void @llvm.lifetime.start.p0(i64 8, ptr %12) #8
  %24 = load ptr, ptr %11, align 8, !tbaa !59
  %25 = getelementptr inbounds nuw %struct._GList, ptr %24, i32 0, i32 0
  %26 = load ptr, ptr %25, align 8, !tbaa !60
  store ptr %26, ptr %12, align 8, !tbaa !68
  call void @llvm.lifetime.start.p0(i64 8, ptr %13) #8
  %27 = load i32, ptr %9, align 4, !tbaa !52
  %28 = icmp eq i32 %27, 0
  br i1 %28, label %29, label %33

29:                                               ; preds = %23
  %30 = load ptr, ptr %12, align 8, !tbaa !68
  %31 = getelementptr inbounds nuw %struct.dt_undo_tags_t, ptr %30, i32 0, i32 2
  %32 = load ptr, ptr %31, align 8, !tbaa !73
  br label %37

33:                                               ; preds = %23
  %34 = load ptr, ptr %12, align 8, !tbaa !68
  %35 = getelementptr inbounds nuw %struct.dt_undo_tags_t, ptr %34, i32 0, i32 1
  %36 = load ptr, ptr %35, align 8, !tbaa !72
  br label %37

37:                                               ; preds = %33, %29
  %38 = phi ptr [ %32, %29 ], [ %36, %33 ]
  store ptr %38, ptr %13, align 8, !tbaa !59
  call void @llvm.lifetime.start.p0(i64 8, ptr %14) #8
  %39 = load i32, ptr %9, align 4, !tbaa !52
  %40 = icmp eq i32 %39, 0
  br i1 %40, label %41, label %45

41:                                               ; preds = %37
  %42 = load ptr, ptr %12, align 8, !tbaa !68
  %43 = getelementptr inbounds nuw %struct.dt_undo_tags_t, ptr %42, i32 0, i32 1
  %44 = load ptr, ptr %43, align 8, !tbaa !72
  br label %49

45:                                               ; preds = %37
  %46 = load ptr, ptr %12, align 8, !tbaa !68
  %47 = getelementptr inbounds nuw %struct.dt_undo_tags_t, ptr %46, i32 0, i32 2
  %48 = load ptr, ptr %47, align 8, !tbaa !73
  br label %49

49:                                               ; preds = %45, %41
  %50 = phi ptr [ %44, %41 ], [ %48, %45 ]
  store ptr %50, ptr %14, align 8, !tbaa !59
  %51 = load ptr, ptr %12, align 8, !tbaa !68
  %52 = getelementptr inbounds nuw %struct.dt_undo_tags_t, ptr %51, i32 0, i32 0
  %53 = load i32, ptr %52, align 8, !tbaa !70
  %54 = load ptr, ptr %13, align 8, !tbaa !59
  %55 = load ptr, ptr %14, align 8, !tbaa !59
  call void @_pop_undo_execute(i32 noundef %53, ptr noundef %54, ptr noundef %55)
  %56 = load ptr, ptr %10, align 8, !tbaa !66
  %57 = load ptr, ptr %56, align 8, !tbaa !59
  %58 = load ptr, ptr %12, align 8, !tbaa !68
  %59 = getelementptr inbounds nuw %struct.dt_undo_tags_t, ptr %58, i32 0, i32 0
  %60 = load i32, ptr %59, align 8, !tbaa !70
  %61 = sext i32 %60 to i64
  %62 = inttoptr i64 %61 to ptr
  %63 = call ptr @g_list_prepend(ptr noundef %57, ptr noundef %62)
  %64 = load ptr, ptr %10, align 8, !tbaa !66
  store ptr %63, ptr %64, align 8, !tbaa !59
  call void @llvm.lifetime.end.p0(i64 8, ptr %14) #8
  call void @llvm.lifetime.end.p0(i64 8, ptr %13) #8
  call void @llvm.lifetime.end.p0(i64 8, ptr %12) #8
  br label %65

65:                                               ; preds = %49
  %66 = load ptr, ptr %11, align 8, !tbaa !59
  %67 = icmp ne ptr %66, null
  br i1 %67, label %68, label %72

68:                                               ; preds = %65
  %69 = load ptr, ptr %11, align 8, !tbaa !59
  %70 = getelementptr inbounds nuw %struct._GList, ptr %69, i32 0, i32 1
  %71 = load ptr, ptr %70, align 8, !tbaa !64
  br label %73

72:                                               ; preds = %65
  br label %73

73:                                               ; preds = %72, %68
  %74 = phi ptr [ %71, %68 ], [ null, %72 ]
  store ptr %74, ptr %11, align 8, !tbaa !59
  br label %19

75:                                               ; preds = %22
  br label %76

76:                                               ; preds = %75
  %77 = load i32, ptr getelementptr inbounds nuw (%struct.darktable_t, ptr @darktable, i32 0, i32 53), align 8, !tbaa !57
  %78 = and i32 %77, 1
  %79 = icmp ne i32 %78, 0
  br i1 %79, label %80, label %96

80:                                               ; preds = %76
  %81 = load i32, ptr getelementptr inbounds ([47 x i32], ptr getelementptr inbounds nuw (%struct.darktable_t, ptr @darktable, i32 0, i32 54), i64 0, i64 9), align 4, !tbaa !52
  %82 = icmp ne i32 %81, 0
  br i1 %82, label %83, label %96

83:                                               ; preds = %80
  br label %84

84:                                               ; preds = %83
  %85 = load i32, ptr getelementptr inbounds nuw (%struct.darktable_t, ptr @darktable, i32 0, i32 2), align 8, !tbaa !14
  %86 = and i32 1048576, %85
  %87 = icmp ne i32 %86, 0
  br i1 %87, label %88, label %94

88:                                               ; preds = %84
  %89 = load i32, ptr getelementptr inbounds nuw (%struct.darktable_t, ptr @darktable, i32 0, i32 2), align 8, !tbaa !14
  %90 = xor i32 %89, -1
  %91 = and i32 0, %90
  %92 = icmp ne i32 %91, 0
  br i1 %92, label %94, label %93

93:                                               ; preds = %88
  call void (ptr, ...) @dt_print_ext(ptr noundef @.str.8, ptr noundef @.str.9, ptr noundef @.str.1, i32 noundef 146, ptr noundef @__FUNCTION__._pop_undo)
  br label %94

94:                                               ; preds = %93, %88, %84
  br label %95

95:                                               ; preds = %94
  br label %96

96:                                               ; preds = %95, %80, %76
  %97 = load ptr, ptr getelementptr inbounds nuw (%struct.darktable_t, ptr @darktable, i32 0, i32 13), align 8, !tbaa !58
  call void (ptr, i32, ...) @dt_control_signal_raise(ptr noundef %97, i32 noundef 9)
  br label %98

98:                                               ; preds = %96
  br label %99

99:                                               ; preds = %98, %5
  ret void
}