; Function Attrs: nounwind uwtable
define internal void @_pop_undo(ptr readnone captures(none) %0, i32 noundef %1, ptr noundef readonly %2, i32 noundef %3, ptr noundef captures(none) %4) #0 {
  %6 = icmp eq i32 %1, 32
  br i1 %6, label %.preheader, label %45

.preheader:                                       ; preds = %5
  %.not20 = icmp eq ptr %2, null
  br i1 %.not20, label %._crit_edge, label %.lr.ph

.lr.ph:                                           ; preds = %.preheader
  %7 = icmp eq i32 %3, 0
  br i1 %7, label %.lr.ph.split.us, label %.lr.ph.split

.lr.ph.split.us:                                  ; preds = %.lr.ph, %.lr.ph.split.us
  %.021.us = phi ptr [ %20, %.lr.ph.split.us ], [ %2, %.lr.ph ]
  %8 = load ptr, ptr %.021.us, align 8, !tbaa !58
  %9 = getelementptr inbounds nuw i8, ptr %8, i64 16
  %10 = getelementptr inbounds nuw i8, ptr %8, i64 8
  %11 = load ptr, ptr %9, align 8, !tbaa !63
  %12 = load ptr, ptr %10, align 8, !tbaa !63
  %13 = load i32, ptr %8, align 8, !tbaa !65
  tail call fastcc void @_pop_undo_execute(i32 noundef %13, ptr noundef %11, ptr noundef %12)
  %14 = load ptr, ptr %4, align 8, !tbaa !63
  %15 = load i32, ptr %8, align 8, !tbaa !65
  %16 = sext i32 %15 to i64
  %17 = inttoptr i64 %16 to ptr
  %18 = tail call ptr @g_list_prepend(ptr noundef %14, ptr noundef %17) #11
  store ptr %18, ptr %4, align 8, !tbaa !63
  %19 = getelementptr inbounds nuw i8, ptr %.021.us, i64 8
  %20 = load ptr, ptr %19, align 8, !tbaa !62
  %.not.us = icmp eq ptr %20, null
  br i1 %.not.us, label %._crit_edge, label %.lr.ph.split.us

._crit_edge:                                      ; preds = %.lr.ph.split, %.lr.ph.split.us, %.preheader
  %21 = load i32, ptr getelementptr inbounds nuw (i8, ptr @darktable, i64 3128), align 8, !tbaa !55
  %22 = and i32 %21, 1
  %23 = icmp ne i32 %22, 0
  %24 = load i32, ptr getelementptr inbounds nuw (i8, ptr @darktable, i64 3168), align 8
  %25 = icmp ne i32 %24, 0
  %or.cond = select i1 %23, i1 %25, i1 false
  br i1 %or.cond, label %39, label %43

.lr.ph.split:                                     ; preds = %.lr.ph, %.lr.ph.split
  %.021 = phi ptr [ %38, %.lr.ph.split ], [ %2, %.lr.ph ]
  %26 = load ptr, ptr %.021, align 8, !tbaa !58
  %27 = getelementptr inbounds nuw i8, ptr %26, i64 16
  %28 = getelementptr inbounds nuw i8, ptr %26, i64 8
  %29 = load ptr, ptr %28, align 8, !tbaa !63
  %30 = load ptr, ptr %27, align 8, !tbaa !63
  %31 = load i32, ptr %26, align 8, !tbaa !65
  tail call fastcc void @_pop_undo_execute(i32 noundef %31, ptr noundef %29, ptr noundef %30)
  %32 = load ptr, ptr %4, align 8, !tbaa !63
  %33 = load i32, ptr %26, align 8, !tbaa !65
  %34 = sext i32 %33 to i64
  %35 = inttoptr i64 %34 to ptr
  %36 = tail call ptr @g_list_prepend(ptr noundef %32, ptr noundef %35) #11
  store ptr %36, ptr %4, align 8, !tbaa !63
  %37 = getelementptr inbounds nuw i8, ptr %.021, i64 8
  %38 = load ptr, ptr %37, align 8, !tbaa !62
  %.not = icmp eq ptr %38, null
  br i1 %.not, label %._crit_edge, label %.lr.ph.split

39:                                               ; preds = %._crit_edge
  %40 = load i32, ptr getelementptr inbounds nuw (i8, ptr @darktable, i64 8), align 8, !tbaa !9
  %41 = and i32 %40, 1048576
  %.not18 = icmp eq i32 %41, 0
  br i1 %.not18, label %43, label %42

42:                                               ; preds = %39
  tail call void (ptr, ...) @dt_print_ext(ptr noundef nonnull @.str.8, ptr noundef nonnull @.str.9, ptr noundef nonnull @.str.1, i32 noundef 146, ptr noundef nonnull @__FUNCTION__._pop_undo) #11
  br label %43

43:                                               ; preds = %42, %39, %._crit_edge
  %44 = load ptr, ptr getelementptr inbounds nuw (i8, ptr @darktable, i64 96), align 8, !tbaa !56
  tail call void (ptr, i32, ...) @dt_control_signal_raise(ptr noundef %44, i32 noundef 9) #11
  br label %45

45:                                               ; preds = %43, %5
  ret void
}